target datalayout = "e-m:e-p270:32:32-p271:32:32-p272:64:64-i64:64-i128:128-f80:128-n8:16:32:64-S128"
target triple = "x86_64-pc-linux-gnu"

%"class.icu_77::number::Precision.base" = type <{ i32, [4 x i8], %"union.icu_77::number::Precision::PrecisionUnion", i32 }>
%"union.icu_77::number::Precision::PrecisionUnion" = type { %"struct.icu_77::number::Precision::PrecisionUnion::IncrementSettings" }
%"struct.icu_77::number::Precision::PrecisionUnion::IncrementSettings" = type { i64, i16, i16 }
%"class.icu_77::number::Precision" = type <{ i32, [4 x i8], %"union.icu_77::number::Precision::PrecisionUnion", i32, [4 x i8] }>
%"struct.icu_77::number::Precision::PrecisionUnion::FractionSignificantSettings" = type { i16, i16, i16, i16, i32, i8 }
%"class.icu_77::number::FractionPrecision" = type { %"class.icu_77::number::Precision.base", [4 x i8] }

; Function Attrs: mustprogress nounwind uwtable
define linkonce_odr void @_ZN6icu_776number9PrecisionC2ERKNS1_13PrecisionTypeERKNS1_14PrecisionUnionE(ptr noundef nonnull align 8 dereferenceable(28) %0, ptr noundef nonnull align 4 dereferenceable(4) %1, ptr noundef nonnull align 8 dereferenceable(16) %2) unnamed_addr #0 comdat align 2 {
  %4 = alloca ptr, align 8
  %5 = alloca ptr, align 8
  %6 = alloca ptr, align 8
  store ptr %0, ptr %4, align 8, !tbaa !25
  store ptr %1, ptr %5, align 8, !tbaa !22
  store ptr %2, ptr %6, align 8, !tbaa !63
  %7 = load ptr, ptr %4, align 8
  %8 = getelementptr inbounds nuw %"class.icu_77::number::Precision", ptr %7, i32 0, i32 0
  %9 = load ptr, ptr %5, align 8, !tbaa !22
  %10 = load i32, ptr %9, align 4, !tbaa !52
  store i32 %10, ptr %8, align 8, !tbaa !65
  %11 = getelementptr inbounds nuw %"class.icu_77::number::Precision", ptr %7, i32 0, i32 2
  %12 = load ptr, ptr %6, align 8, !tbaa !63
  call void @llvm.memcpy.p0.p0.i64(ptr align 8 %11, ptr align 8 %12, i64 16, i1 false), !tbaa.struct !68
  %13 = getelementptr inbounds nuw %"class.icu_77::number::Precision", ptr %7, i32 0, i32 3
  store i32 0, ptr %13, align 8, !tbaa !69
  ret void
}

; Function Attrs: mustprogress nounwind uwtable
define linkonce_odr void @_ZN6icu_776number9PrecisionC2E10UErrorCode(ptr noundef nonnull align 8 dereferenceable(28) %0, i32 noundef %1) unnamed_addr #0 comdat align 2 {
  %3 = alloca ptr, align 8
  %4 = alloca i32, align 4
  store ptr %0, ptr %3, align 8, !tbaa !25
  store i32 %1, ptr %4, align 4, !tbaa !15
  %5 = load ptr, ptr %3, align 8
  %6 = getelementptr inbounds nuw %"class.icu_77::number::Precision", ptr %5, i32 0, i32 0
  store i32 9, ptr %6, align 8, !tbaa !65
  %7 = getelementptr inbounds nuw %"class.icu_77::number::Precision", ptr %5, i32 0, i32 3
  store i32 0, ptr %7, align 8, !tbaa !69
  %8 = load i32, ptr %4, align 4, !tbaa !15
  %9 = getelementptr inbounds nuw %"class.icu_77::number::Precision", ptr %5, i32 0, i32 2
  store i32 %8, ptr %9, align 8, !tbaa !33
  ret void
}

; Function Attrs: inlinehint mustprogress nounwind uwtable
define linkonce_odr void @_ZN6icu_776number17FractionPrecisionCI2NS0_9PrecisionEERKNS0_9Precision13PrecisionTypeERKNS2_14PrecisionUnionE(ptr noundef nonnull align 8 dereferenceable(28) %0, ptr noundef nonnull align 4 dereferenceable(4) %1, ptr noundef nonnull align 8 dereferenceable(16) %2) unnamed_addr #2 comdat align 2 {
  %4 = alloca ptr, align 8
  %5 = alloca ptr, align 8
  %6 = alloca ptr, align 8
  store ptr %0, ptr %4, align 8, !tbaa !73
  store ptr %1, ptr %5, align 8, !tbaa !22
  store ptr %2, ptr %6, align 8, !tbaa !63
  %7 = load ptr, ptr %4, align 8
  %8 = load ptr, ptr %5, align 8
  %9 = load ptr, ptr %6, align 8
  call void @_ZN6icu_776number9PrecisionC2ERKNS1_13PrecisionTypeERKNS1_14PrecisionUnionE(ptr noundef nonnull align 8 dereferenceable(28) %7, ptr noundef nonnull align 4 dereferenceable(4) %8, ptr noundef nonnull align 8 dereferenceable(16) %9)
  ret void
}

; Function Attrs: inlinehint mustprogress uwtable
define linkonce_odr void @_ZN6icu_776number17FractionPrecisionCI2NS0_9PrecisionEE10UErrorCode(ptr noundef nonnull align 8 dereferenceable(28) %0, i32 noundef %1) unnamed_addr #3 comdat align 2 {
  %3 = alloca ptr, align 8
  %4 = alloca i32, align 4
  store ptr %0, ptr %3, align 8, !tbaa !73
  store i32 %1, ptr %4, align 4, !tbaa !15
  %5 = load ptr, ptr %3, align 8
  %6 = load i32, ptr %4, align 4, !tbaa !15
  call void @_ZN6icu_776number9PrecisionC2E10UErrorCode(ptr noundef nonnull align 8 dereferenceable(28) %5, i32 noundef %6)
  ret void
}

; Function Attrs: mustprogress uwtable
define void @_ZN6icu_776number9Precision17constructFractionEii(ptr dead_on_unwind noalias writable sret(%"class.icu_77::number::FractionPrecision") align 8 %0, i32 noundef %1, i32 noundef %2) #1 align 2 {
  %4 = alloca i32, align 4
  %5 = alloca i32, align 4
  %6 = alloca %"struct.icu_77::number::Precision::PrecisionUnion::FractionSignificantSettings", align 4
  %7 = alloca %"union.icu_77::number::Precision::PrecisionUnion", align 8
  %8 = alloca i32, align 4
  store i32 %1, ptr %4, align 4, !tbaa !14
  store i32 %2, ptr %5, align 4, !tbaa !14
  call void @llvm.lifetime.start.p0(i64 16, ptr %6) #13
  call void @llvm.memset.p0.i64(ptr align 4 %6, i8 0, i64 16, i1 false)
  %9 = load i32, ptr %4, align 4, !tbaa !14
  %10 = trunc i32 %9 to i16
  %11 = getelementptr inbounds nuw %"struct.icu_77::number::Precision::PrecisionUnion::FractionSignificantSettings", ptr %6, i32 0, i32 0
  store i16 %10, ptr %11, align 4, !tbaa !54
  %12 = load i32, ptr %5, align 4, !tbaa !14
  %13 = trunc i32 %12 to i16
  %14 = getelementptr inbounds nuw %"struct.icu_77::number::Precision::PrecisionUnion::FractionSignificantSettings", ptr %6, i32 0, i32 1
  store i16 %13, ptr %14, align 2, !tbaa !58
  %15 = getelementptr inbounds nuw %"struct.icu_77::number::Precision::PrecisionUnion::FractionSignificantSettings", ptr %6, i32 0, i32 2
  store i16 -1, ptr %15, align 4, !tbaa !59
  %16 = getelementptr inbounds nuw %"struct.icu_77::number::Precision::PrecisionUnion::FractionSignificantSettings", ptr %6, i32 0, i32 3
  store i16 -1, ptr %16, align 2, !tbaa !60
  call void @llvm.lifetime.start.p0(i64 16, ptr %7) #13
  call void @llvm.memset.p0.i64(ptr align 8 %7, i8 0, i64 16, i1 false)
  call void @llvm.memcpy.p0.p0.i64(ptr align 8 %7, ptr align 4 %6, i64 16, i1 false), !tbaa.struct !70
  call void @llvm.lifetime.start.p0(i64 4, ptr %8) #13
  store i32 2, ptr %8, align 4, !tbaa !52
  call void @_ZN6icu_776number17FractionPrecisionCI2NS0_9PrecisionEERKNS0_9Precision13PrecisionTypeERKNS2_14PrecisionUnionE(ptr noundef nonnull align 8 dereferenceable(28) %0, ptr noundef nonnull align 4 dereferenceable(4) %8, ptr noundef nonnull align 8 dereferenceable(16) %7)
  call void @llvm.lifetime.end.p0(i64 4, ptr %8) #13
  call void @llvm.lifetime.end.p0(i64 16, ptr %7) #13
  call void @llvm.lifetime.end.p0(i64 16, ptr %6) #13
  ret void
}

; Function Attrs: mustprogress uwtable
define void @_ZN6icu_776number9Precision13fixedFractionEi(ptr dead_on_unwind noalias writable sret(%"class.icu_77::number::FractionPrecision") align 8 %0, i32 noundef %1) #1 align 2 {
  %3 = alloca i32, align 4
  store i32 %1, ptr %3, align 4, !tbaa !14
  %4 = load i32, ptr %3, align 4, !tbaa !14
  %5 = icmp sge i32 %4, 0
  br i1 %5, label %6, label %12

6:                                                ; preds = %2
  %7 = load i32, ptr %3, align 4, !tbaa !14
  %8 = icmp sle i32 %7, 999
  br i1 %8, label %9, label %12

9:                                                ; preds = %6
  %10 = load i32, ptr %3, align 4, !tbaa !14
  %11 = load i32, ptr %3, align 4, !tbaa !14
  call void @_ZN6icu_776number9Precision17constructFractionEii(ptr dead_on_unwind writable sret(%"class.icu_77::number::FractionPrecision") align 8 %0, i32 noundef %10, i32 noundef %11)
  br label %13

12:                                               ; preds = %6, %2
  call void @_ZN6icu_776number17FractionPrecisionCI2NS0_9PrecisionEE10UErrorCode(ptr noundef nonnull align 8 dereferenceable(28) %0, i32 noundef 65810)
  br label %13

13:                                               ; preds = %12, %9
  ret void
}